target datalayout = "e-m:e-p270:32:32-p271:32:32-p272:64:64-i64:64-i128:128-f80:128-n8:16:32:64-S128"
target triple = "x86_64-pc-linux-gnu"

%"class.std::__cxx11::basic_string" = type { %"struct.std::__cxx11::basic_string<char>::_Alloc_hider", i64, %union.anon }
%"struct.std::__cxx11::basic_string<char>::_Alloc_hider" = type { ptr }
%union.anon = type { i64, [8 x i8] }

; Function Attrs: mustprogress nounwind uwtable
define internal noundef ptr @_ZN7testing8internal15GetParamNameGenISt5tupleIJN4perf12_GLOBAL__N_18MatDepthEiN2cv5Size_IiEEEEEEPNS0_16ParamNameGenFuncIT_E4TypeEv() #7 {
  ret ptr @_ZN7testing8internal16DefaultParamNameISt5tupleIJN4perf12_GLOBAL__N_18MatDepthEiN2cv5Size_IiEEEEEENSt7__cxx1112basic_stringIcSt11char_traitsIcESaIcEEERKNS_13TestParamInfoIT_EE
}

; Function Attrs: mustprogress uwtable
define internal void @_ZN11opencv_test12_GLOBAL__N_157gtest_RidgeDetectionFilterPerfTest_perf_EvalGenerateName_B5cxx11ERKN7testing13TestParamInfoISt5tupleIJN4perf12_GLOBAL__N_18MatDepthEiN2cv5Size_IiEEEEEE(ptr dead_on_unwind noalias writable sret(%"class.std::__cxx11::basic_string") align 8 %0, ptr noundef nonnull align 1 %1) #6 {
  %3 = alloca ptr, align 8
  %4 = alloca ptr, align 8
  store ptr %0, ptr %3, align 8
  store ptr %1, ptr %4, align 8, !tbaa !39
  %5 = call noundef ptr @_ZN7testing8internal15GetParamNameGenISt5tupleIJN4perf12_GLOBAL__N_18MatDepthEiN2cv5Size_IiEEEEEEPNS0_16ParamNameGenFuncIT_E4TypeEv()
  %6 = load ptr, ptr %4, align 8, !tbaa !39
  call void %5(ptr dead_on_unwind writable sret(%"class.std::__cxx11::basic_string") align 8 %0, ptr noundef nonnull align 8 dereferenceable(24) %6)
  ret void
}